target datalayout = "e-m:e-p270:32:32-p271:32:32-p272:64:64-i64:64-i128:128-f80:128-n8:16:32:64-S128"
target triple = "x86_64-unknown-linux-gnu"

%"class.re2::EmptyStringWalker" = type { %"class.re2::Regexp::Walker" }
%"class.re2::Regexp::Walker" = type { ptr, %"class.std::stack", i8, i32 }
%"class.std::stack" = type { %"class.std::deque" }
%"class.std::deque" = type { %"class.std::_Deque_base" }
%"class.std::_Deque_base" = type { %"struct.std::_Deque_base<re2::WalkState<bool>, std::allocator<re2::WalkState<bool>>>::_Deque_impl" }
%"struct.std::_Deque_base<re2::WalkState<bool>, std::allocator<re2::WalkState<bool>>>::_Deque_impl" = type { %"struct.std::_Deque_base<re2::WalkState<bool>, std::allocator<re2::WalkState<bool>>>::_Deque_impl_data" }
%"struct.std::_Deque_base<re2::WalkState<bool>, std::allocator<re2::WalkState<bool>>>::_Deque_impl_data" = type { ptr, i64, %"struct.std::_Deque_iterator", %"struct.std::_Deque_iterator" }
%"struct.std::_Deque_iterator" = type { ptr, ptr, ptr, ptr }

; Function Attrs: mustprogress nounwind uwtable
define linkonce_odr void @_ZNSt15__new_allocatorIN3re29WalkStateIbEEED2Ev(ptr noundef nonnull align 1 dereferenceable(1) %this) unnamed_addr #1 comdat align 2 {
entry:
  %this.addr = alloca ptr, align 8
  store ptr %this, ptr %this.addr, align 8
  ret void
}

; Function Attrs: mustprogress nounwind uwtable
define linkonce_odr void @_ZNSt15_Deque_iteratorIN3re29WalkStateIbEERS2_PS2_EC2Ev(ptr noundef nonnull align 8 dereferenceable(32) %this) unnamed_addr #1 comdat align 2 {
entry:
  %this.addr = alloca ptr, align 8
  store ptr %this, ptr %this.addr, align 8
  %this1 = load ptr, ptr %this.addr, align 8
  %_M_cur = getelementptr inbounds %"struct.std::_Deque_iterator", ptr %this1, i32 0, i32 0
  store ptr null, ptr %_M_cur, align 8
  %_M_first = getelementptr inbounds %"struct.std::_Deque_iterator", ptr %this1, i32 0, i32 1
  store ptr null, ptr %_M_first, align 8
  %_M_last = getelementptr inbounds %"struct.std::_Deque_iterator", ptr %this1, i32 0, i32 2
  store ptr null, ptr %_M_last, align 8
  %_M_node = getelementptr inbounds %"struct.std::_Deque_iterator", ptr %this1, i32 0, i32 3
  store ptr null, ptr %_M_node, align 8
  ret void
}

; Function Attrs: mustprogress nounwind uwtable
define linkonce_odr void @_ZNSt15__new_allocatorIN3re29WalkStateIbEEEC2Ev(ptr noundef nonnull align 1 dereferenceable(1) %this) unnamed_addr #1 comdat align 2 {
entry:
  %this.addr = alloca ptr, align 8
  store ptr %this, ptr %this.addr, align 8
  ret void
}

; Function Attrs: mustprogress nounwind uwtable
define linkonce_odr void @_ZNSaIN3re29WalkStateIbEEED2Ev(ptr noundef nonnull align 1 dereferenceable(1) %this) unnamed_addr #1 comdat align 2 {
entry:
  %this.addr = alloca ptr, align 8
  store ptr %this, ptr %this.addr, align 8
  %this1 = load ptr, ptr %this.addr, align 8
  call void @_ZNSt15__new_allocatorIN3re29WalkStateIbEEED2Ev(ptr noundef nonnull align 1 dereferenceable(1) %this1) #11
  ret void
}

; Function Attrs: mustprogress nounwind uwtable
define linkonce_odr void @_ZNSt11_Deque_baseIN3re29WalkStateIbEESaIS2_EE16_Deque_impl_dataC2Ev(ptr noundef nonnull align 8 dereferenceable(80) %this) unnamed_addr #1 comdat align 2 {
entry:
  %this.addr = alloca ptr, align 8
  store ptr %this, ptr %this.addr, align 8
  %this1 = load ptr, ptr %this.addr, align 8
  %_M_map = getelementptr inbounds %"struct.std::_Deque_base<re2::WalkState<bool>, std::allocator<re2::WalkState<bool>>>::_Deque_impl_data", ptr %this1, i32 0, i32 0
  store ptr null, ptr %_M_map, align 8
  %_M_map_size = getelementptr inbounds %"struct.std::_Deque_base<re2::WalkState<bool>, std::allocator<re2::WalkState<bool>>>::_Deque_impl_data", ptr %this1, i32 0, i32 1
  store i64 0, ptr %_M_map_size, align 8
  %_M_start = getelementptr inbounds %"struct.std::_Deque_base<re2::WalkState<bool>, std::allocator<re2::WalkState<bool>>>::_Deque_impl_data", ptr %this1, i32 0, i32 2
  call void @_ZNSt15_Deque_iteratorIN3re29WalkStateIbEERS2_PS2_EC2Ev(ptr noundef nonnull align 8 dereferenceable(32) %_M_start) #11
  %_M_finish = getelementptr inbounds %"struct.std::_Deque_base<re2::WalkState<bool>, std::allocator<re2::WalkState<bool>>>::_Deque_impl_data", ptr %this1, i32 0, i32 3
  call void @_ZNSt15_Deque_iteratorIN3re29WalkStateIbEERS2_PS2_EC2Ev(ptr noundef nonnull align 8 dereferenceable(32) %_M_finish) #11
  ret void
}

; Function Attrs: mustprogress nounwind uwtable
define linkonce_odr void @_ZNSaIN3re29WalkStateIbEEEC2Ev(ptr noundef nonnull align 1 dereferenceable(1) %this) unnamed_addr #1 comdat align 2 {
entry:
  %this.addr = alloca ptr, align 8
  store ptr %this, ptr %this.addr, align 8
  %this1 = load ptr, ptr %this.addr, align 8
  call void @_ZNSt15__new_allocatorIN3re29WalkStateIbEEEC2Ev(ptr noundef nonnull align 1 dereferenceable(1) %this1) #11
  ret void
}

; Function Attrs: mustprogress nounwind uwtable
define linkonce_odr void @_ZNSt11_Deque_baseIN3re29WalkStateIbEESaIS2_EE11_Deque_implD2Ev(ptr noundef nonnull align 8 dereferenceable(80) %this) unnamed_addr #1 comdat align 2 {
entry:
  %this.addr = alloca ptr, align 8
  store ptr %this, ptr %this.addr, align 8
  %this1 = load ptr, ptr %this.addr, align 8
  call void @_ZNSaIN3re29WalkStateIbEEED2Ev(ptr noundef nonnull align 1 dereferenceable(1) %this1) #11
  ret void
}

; Function Attrs: mustprogress nounwind uwtable
define linkonce_odr void @_ZNSt11_Deque_baseIN3re29WalkStateIbEESaIS2_EE11_Deque_implC2Ev(ptr noundef nonnull align 8 dereferenceable(80) %this) unnamed_addr #1 comdat align 2 {
entry:
  %this.addr = alloca ptr, align 8
  store ptr %this, ptr %this.addr, align 8
  %this1 = load ptr, ptr %this.addr, align 8
  call void @_ZNSaIN3re29WalkStateIbEEEC2Ev(ptr noundef nonnull align 1 dereferenceable(1) %this1) #11
  call void @_ZNSt11_Deque_baseIN3re29WalkStateIbEESaIS2_EE16_Deque_impl_dataC2Ev(ptr noundef nonnull align 8 dereferenceable(80) %this1) #11
  ret void
}

; Function Attrs: mustprogress uwtable
define linkonce_odr void @_ZNSt11_Deque_baseIN3re29WalkStateIbEESaIS2_EEC2Ev(ptr noundef nonnull align 8 dereferenceable(80) %this) unnamed_addr #0 comdat align 2 personality ptr @__gxx_personality_v0 {
entry:
  %this.addr = alloca ptr, align 8
  %exn.slot = alloca ptr, align 8
  %ehselector.slot = alloca i32, align 4
  store ptr %this, ptr %this.addr, align 8
  %this1 = load ptr, ptr %this.addr, align 8
  %_M_impl = getelementptr inbounds %"class.std::_Deque_base", ptr %this1, i32 0, i32 0
  call void @_ZNSt11_Deque_baseIN3re29WalkStateIbEESaIS2_EE11_Deque_implC2Ev(ptr noundef nonnull align 8 dereferenceable(80) %_M_impl) #11
  invoke void @_ZNSt11_Deque_baseIN3re29WalkStateIbEESaIS2_EE17_M_initialize_mapEm(ptr noundef nonnull align 8 dereferenceable(80) %this1, i64 noundef 0)
          to label %invoke.cont unwind label %lpad

invoke.cont:                                      ; preds = %entry
  ret void

lpad:                                             ; preds = %entry
  %0 = landingpad { ptr, i32 }
          cleanup
  %1 = extractvalue { ptr, i32 } %0, 0
  store ptr %1, ptr %exn.slot, align 8
  %2 = extractvalue { ptr, i32 } %0, 1
  store i32 %2, ptr %ehselector.slot, align 4
  call void @_ZNSt11_Deque_baseIN3re29WalkStateIbEESaIS2_EE11_Deque_implD2Ev(ptr noundef nonnull align 8 dereferenceable(80) %_M_impl) #11
  br label %eh.resume

eh.resume:                                        ; preds = %lpad
  %exn = load ptr, ptr %exn.slot, align 8
  %sel = load i32, ptr %ehselector.slot, align 4
  %lpad.val = insertvalue { ptr, i32 } poison, ptr %exn, 0
  %lpad.val2 = insertvalue { ptr, i32 } %lpad.val, i32 %sel, 1
  resume { ptr, i32 } %lpad.val2
}

; Function Attrs: mustprogress uwtable
define linkonce_odr void @_ZNSt5dequeIN3re29WalkStateIbEESaIS2_EEC2Ev(ptr noundef nonnull align 8 dereferenceable(80) %this) unnamed_addr #0 comdat align 2 {
entry:
  %this.addr = alloca ptr, align 8
  store ptr %this, ptr %this.addr, align 8
  %this1 = load ptr, ptr %this.addr, align 8
  call void @_ZNSt11_Deque_baseIN3re29WalkStateIbEESaIS2_EEC2Ev(ptr noundef nonnull align 8 dereferenceable(80) %this1)
  ret void
}

; Function Attrs: mustprogress uwtable
define linkonce_odr void @_ZNSt5stackIN3re29WalkStateIbEESt5dequeIS2_SaIS2_EEEC2IS5_vEEv(ptr noundef nonnull align 8 dereferenceable(80) %this) unnamed_addr #0 comdat align 2 {
entry:
  %this.addr = alloca ptr, align 8
  store ptr %this, ptr %this.addr, align 8
  %this1 = load ptr, ptr %this.addr, align 8
  %c = getelementptr inbounds %"class.std::stack", ptr %this1, i32 0, i32 0
  call void @llvm.memset.p0.i64(ptr align 8 %c, i8 0, i64 80, i1 false)
  call void @_ZNSt5dequeIN3re29WalkStateIbEESaIS2_EEC2Ev(ptr noundef nonnull align 8 dereferenceable(80) %c)
  ret void
}

; Function Attrs: mustprogress uwtable
define linkonce_odr void @_ZN3re26Regexp6WalkerIbEC2Ev(ptr noundef nonnull align 8 dereferenceable(96) %this) unnamed_addr #0 comdat align 2 {
entry:
  %this.addr = alloca ptr, align 8
  store ptr %this, ptr %this.addr, align 8
  %this1 = load ptr, ptr %this.addr, align 8
  store ptr getelementptr inbounds ({ [8 x ptr] }, ptr @_ZTVN3re26Regexp6WalkerIbEE, i32 0, i32 0, i32 2), ptr %this1, align 8
  %stack_ = getelementptr inbounds %"class.re2::Regexp::Walker", ptr %this1, i32 0, i32 1
  call void @_ZNSt5stackIN3re29WalkStateIbEESt5dequeIS2_SaIS2_EEEC2IS5_vEEv(ptr noundef nonnull align 8 dereferenceable(80) %stack_)
  %stopped_early_ = getelementptr inbounds %"class.re2::Regexp::Walker", ptr %this1, i32 0, i32 2
  store i8 0, ptr %stopped_early_, align 8
  ret void
}

; Function Attrs: mustprogress uwtable
define linkonce_odr noundef zeroext i1 @_ZN3re26Regexp6WalkerIbE4WalkEPS0_b(ptr noundef nonnull align 8 dereferenceable(96) %this, ptr noundef %re, i1 noundef zeroext %top_arg) #0 comdat align 2 {
entry:
  %this.addr = alloca ptr, align 8
  %re.addr = alloca ptr, align 8
  %top_arg.addr = alloca i8, align 1
  store ptr %this, ptr %this.addr, align 8
  store ptr %re, ptr %re.addr, align 8
  %frombool = zext i1 %top_arg to i8
  store i8 %frombool, ptr %top_arg.addr, align 1
  %this1 = load ptr, ptr %this.addr, align 8
  %max_visits_ = getelementptr inbounds %"class.re2::Regexp::Walker", ptr %this1, i32 0, i32 3
  store i32 1000000, ptr %max_visits_, align 4
  %0 = load ptr, ptr %re.addr, align 8
  %1 = load i8, ptr %top_arg.addr, align 1
  %tobool = trunc i8 %1 to i1
  %call = call noundef zeroext i1 @_ZN3re26Regexp6WalkerIbE12WalkInternalEPS0_bb(ptr noundef nonnull align 8 dereferenceable(96) %this1, ptr noundef %0, i1 noundef zeroext %tobool, i1 noundef zeroext true)
  ret i1 %call
}

; Function Attrs: mustprogress uwtable
define linkonce_odr void @_ZN3re217EmptyStringWalkerC2Ev(ptr noundef nonnull align 8 dereferenceable(96) %this) unnamed_addr #0 comdat align 2 {
entry:
  %this.addr = alloca ptr, align 8
  store ptr %this, ptr %this.addr, align 8
  %this1 = load ptr, ptr %this.addr, align 8
  call void @_ZN3re26Regexp6WalkerIbEC2Ev(ptr noundef nonnull align 8 dereferenceable(96) %this1)
  store ptr getelementptr inbounds ({ [8 x ptr] }, ptr @_ZTVN3re217EmptyStringWalkerE, i32 0, i32 0, i32 2), ptr %this1, align 8
  ret void
}

; Function Attrs: mustprogress uwtable
define internal noundef zeroext i1 @_ZN3re2L16CanBeEmptyStringEPNS_6RegexpE(ptr noundef %re) #0 personality ptr @__gxx_personality_v0 {
entry:
  %re.addr = alloca ptr, align 8
  %w = alloca %"class.re2::EmptyStringWalker", align 8
  %exn.slot = alloca ptr, align 8
  %ehselector.slot = alloca i32, align 4
  store ptr %re, ptr %re.addr, align 8
  call void @_ZN3re217EmptyStringWalkerC2Ev(ptr noundef nonnull align 8 dereferenceable(96) %w)
  %0 = load ptr, ptr %re.addr, align 8
  %call = invoke noundef zeroext i1 @_ZN3re26Regexp6WalkerIbE4WalkEPS0_b(ptr noundef nonnull align 8 dereferenceable(96) %w, ptr noundef %0, i1 noundef zeroext true)
          to label %invoke.cont unwind label %lpad

invoke.cont:                                      ; preds = %entry
  call void @_ZN3re217EmptyStringWalkerD2Ev(ptr noundef nonnull align 8 dereferenceable(96) %w) #11
  ret i1 %call

lpad:                                             ; preds = %entry
  %1 = landingpad { ptr, i32 }
          cleanup
  %2 = extractvalue { ptr, i32 } %1, 0
  store ptr %2, ptr %exn.slot, align 8
  %3 = extractvalue { ptr, i32 } %1, 1
  store i32 %3, ptr %ehselector.slot, align 4
  call void @_ZN3re217EmptyStringWalkerD2Ev(ptr noundef nonnull align 8 dereferenceable(96) %w) #11
  br label %eh.resume

eh.resume:                                        ; preds = %lpad
  %exn = load ptr, ptr %exn.slot, align 8
  %sel = load i32, ptr %ehselector.slot, align 4
  %lpad.val = insertvalue { ptr, i32 } poison, ptr %exn, 0
  %lpad.val1 = insertvalue { ptr, i32 } %lpad.val, i32 %sel, 1
  resume { ptr, i32 } %lpad.val1
}